target datalayout = "e-m:e-p270:32:32-p271:32:32-p272:64:64-i64:64-i128:128-f80:128-n8:16:32:64-S128"
target triple = "x86_64-pc-linux-gnu"

; Function Attrs: inlinehint nounwind uwtable
define internal i64 @shld(i64 noundef %0, i64 noundef %1, i64 noundef %2) #3 {
  %4 = alloca i64, align 8
  %5 = alloca i64, align 8
  %6 = alloca i64, align 8
  %7 = alloca i64, align 8
  store i64 %0, ptr %5, align 8, !tbaa !27
  store i64 %1, ptr %6, align 8, !tbaa !27
  store i64 %2, ptr %7, align 8, !tbaa !27
  %8 = load i64, ptr %7, align 8, !tbaa !27
  %9 = icmp ne i64 %8, 0
  br i1 %9, label %10, label %19

10:                                               ; preds = %3
  %11 = load i64, ptr %5, align 8, !tbaa !27
  %12 = load i64, ptr %7, align 8, !tbaa !27
  %13 = shl i64 %11, %12
  %14 = load i64, ptr %6, align 8, !tbaa !27
  %15 = load i64, ptr %7, align 8, !tbaa !27
  %16 = sub i64 64, %15
  %17 = lshr i64 %14, %16
  %18 = or i64 %13, %17
  store i64 %18, ptr %4, align 8
  br label %21

19:                                               ; preds = %3
  %20 = load i64, ptr %5, align 8, !tbaa !27
  store i64 %20, ptr %4, align 8
  br label %21

21:                                               ; preds = %19, %10
  %22 = load i64, ptr %4, align 8
  ret i64 %22
}

; Function Attrs: nounwind uwtable
define dso_local i64 @mp_mul1_dec(ptr noundef %0, ptr noundef %1, i64 noundef %2, i64 noundef %3, i64 noundef %4) #0 {
  %6 = alloca ptr, align 8
  %7 = alloca ptr, align 8
  %8 = alloca i64, align 8
  %9 = alloca i64, align 8
  %10 = alloca i64, align 8
  %11 = alloca i64, align 8
  %12 = alloca i64, align 8
  %13 = alloca i64, align 8
  %14 = alloca i64, align 8
  %15 = alloca i128, align 16
  %16 = alloca i64, align 8
  %17 = alloca i64, align 8
  %18 = alloca i64, align 8
  %19 = alloca i64, align 8
  %20 = alloca i64, align 8
  %21 = alloca i64, align 8
  %22 = alloca i128, align 16
  %23 = alloca i128, align 16
  %24 = alloca i64, align 8
  %25 = alloca i64, align 8
  %26 = alloca i64, align 8
  store ptr %0, ptr %6, align 8, !tbaa !28
  store ptr %1, ptr %7, align 8, !tbaa !28
  store i64 %2, ptr %8, align 8, !tbaa !27
  store i64 %3, ptr %9, align 8, !tbaa !27
  store i64 %4, ptr %10, align 8, !tbaa !27
  call void @llvm.lifetime.start.p0(i64 8, ptr %11) #10
  call void @llvm.lifetime.start.p0(i64 8, ptr %12) #10
  call void @llvm.lifetime.start.p0(i64 8, ptr %13) #10
  call void @llvm.lifetime.start.p0(i64 8, ptr %14) #10
  store i64 0, ptr %11, align 8, !tbaa !27
  br label %27

27:                                               ; preds = %164, %5
  %28 = load i64, ptr %11, align 8, !tbaa !27
  %29 = load i64, ptr %8, align 8, !tbaa !27
  %30 = icmp slt i64 %28, %29
  br i1 %30, label %31, label %167

31:                                               ; preds = %27
  br label %32

32:                                               ; preds = %31
  call void @llvm.lifetime.start.p0(i64 16, ptr %15) #10
  %33 = load ptr, ptr %7, align 8, !tbaa !28
  %34 = load i64, ptr %11, align 8, !tbaa !27
  %35 = getelementptr inbounds i64, ptr %33, i64 %34
  %36 = load i64, ptr %35, align 8, !tbaa !27
  %37 = zext i64 %36 to i128
  %38 = load i64, ptr %9, align 8, !tbaa !27
  %39 = zext i64 %38 to i128
  %40 = mul i128 %37, %39
  store i128 %40, ptr %15, align 16, !tbaa !58
  %41 = load i128, ptr %15, align 16, !tbaa !58
  %42 = trunc i128 %41 to i64
  store i64 %42, ptr %12, align 8, !tbaa !27
  %43 = load i128, ptr %15, align 16, !tbaa !58
  %44 = lshr i128 %43, 64
  %45 = trunc i128 %44 to i64
  store i64 %45, ptr %13, align 8, !tbaa !27
  call void @llvm.lifetime.end.p0(i64 16, ptr %15) #10
  br label %46

46:                                               ; preds = %32
  br label %47

47:                                               ; preds = %46
  br label %48

48:                                               ; preds = %47
  call void @llvm.lifetime.start.p0(i64 8, ptr %16) #10
  %49 = load i64, ptr %12, align 8, !tbaa !27
  store i64 %49, ptr %16, align 8, !tbaa !27
  %50 = load i64, ptr %10, align 8, !tbaa !27
  %51 = load i64, ptr %12, align 8, !tbaa !27
  %52 = add i64 %51, %50
  store i64 %52, ptr %12, align 8, !tbaa !27
  %53 = load i64, ptr %12, align 8, !tbaa !27
  %54 = load i64, ptr %16, align 8, !tbaa !27
  %55 = icmp ult i64 %53, %54
  %56 = zext i1 %55 to i32
  %57 = add i32 0, %56
  %58 = sext i32 %57 to i64
  %59 = load i64, ptr %13, align 8, !tbaa !27
  %60 = add i64 %59, %58
  store i64 %60, ptr %13, align 8, !tbaa !27
  call void @llvm.lifetime.end.p0(i64 8, ptr %16) #10
  br label %61

61:                                               ; preds = %48
  br label %62

62:                                               ; preds = %61
  br label %63

63:                                               ; preds = %62
  call void @llvm.lifetime.start.p0(i64 8, ptr %17) #10
  call void @llvm.lifetime.start.p0(i64 8, ptr %18) #10
  call void @llvm.lifetime.start.p0(i64 8, ptr %19) #10
  call void @llvm.lifetime.start.p0(i64 8, ptr %20) #10
  call void @llvm.lifetime.start.p0(i64 8, ptr %21) #10
  store i64 -8446744073709551616, ptr %21, align 8, !tbaa !27
  %64 = load i64, ptr %12, align 8, !tbaa !27
  store i64 %64, ptr %17, align 8, !tbaa !27
  %65 = load i64, ptr %13, align 8, !tbaa !27
  store i64 %65, ptr %18, align 8, !tbaa !27
  %66 = load i64, ptr %18, align 8, !tbaa !27
  store i64 %66, ptr %19, align 8, !tbaa !27
  %67 = load i64, ptr %19, align 8, !tbaa !27
  %68 = load i64, ptr %17, align 8, !tbaa !27
  %69 = call i64 @shld(i64 noundef %67, i64 noundef %68, i64 noundef 1)
  store i64 %69, ptr %19, align 8, !tbaa !27
  br label %70

70:                                               ; preds = %63
  call void @llvm.lifetime.start.p0(i64 16, ptr %22) #10
  %71 = load i64, ptr %19, align 8, !tbaa !27
  %72 = zext i64 %71 to i128
  %73 = mul i128 %72, 17014118346046923173
  store i128 %73, ptr %22, align 16, !tbaa !58
  %74 = load i128, ptr %22, align 16, !tbaa !58
  %75 = trunc i128 %74 to i64
  store i64 %75, ptr %20, align 8, !tbaa !27
  %76 = load i128, ptr %22, align 16, !tbaa !58
  %77 = lshr i128 %76, 64
  %78 = trunc i128 %77 to i64
  store i64 %78, ptr %10, align 8, !tbaa !27
  call void @llvm.lifetime.end.p0(i64 16, ptr %22) #10
  br label %79

79:                                               ; preds = %70
  br label %80

80:                                               ; preds = %79
  br label %81

81:                                               ; preds = %80
  call void @llvm.lifetime.start.p0(i64 16, ptr %23) #10
  %82 = load i64, ptr %10, align 8, !tbaa !27
  %83 = zext i64 %82 to i128
  %84 = load i64, ptr %21, align 8, !tbaa !27
  %85 = zext i64 %84 to i128
  %86 = mul i128 %83, %85
  store i128 %86, ptr %23, align 16, !tbaa !58
  %87 = load i128, ptr %23, align 16, !tbaa !58
  %88 = trunc i128 %87 to i64
  store i64 %88, ptr %19, align 8, !tbaa !27
  %89 = load i128, ptr %23, align 16, !tbaa !58
  %90 = lshr i128 %89, 64
  %91 = trunc i128 %90 to i64
  store i64 %91, ptr %20, align 8, !tbaa !27
  call void @llvm.lifetime.end.p0(i64 16, ptr %23) #10
  br label %92

92:                                               ; preds = %81
  br label %93

93:                                               ; preds = %92
  br label %94

94:                                               ; preds = %93
  call void @llvm.lifetime.start.p0(i64 8, ptr %24) #10
  %95 = load i64, ptr %17, align 8, !tbaa !27
  store i64 %95, ptr %24, align 8, !tbaa !27
  %96 = load i64, ptr %19, align 8, !tbaa !27
  %97 = load i64, ptr %17, align 8, !tbaa !27
  %98 = sub i64 %97, %96
  store i64 %98, ptr %17, align 8, !tbaa !27
  %99 = load i64, ptr %20, align 8, !tbaa !27
  %100 = load i64, ptr %17, align 8, !tbaa !27
  %101 = load i64, ptr %24, align 8, !tbaa !27
  %102 = icmp ugt i64 %100, %101
  %103 = zext i1 %102 to i32
  %104 = sext i32 %103 to i64
  %105 = add i64 %99, %104
  %106 = load i64, ptr %18, align 8, !tbaa !27
  %107 = sub i64 %106, %105
  store i64 %107, ptr %18, align 8, !tbaa !27
  call void @llvm.lifetime.end.p0(i64 8, ptr %24) #10
  br label %108

108:                                              ; preds = %94
  br label %109

109:                                              ; preds = %108
  br label %110

110:                                              ; preds = %109
  call void @llvm.lifetime.start.p0(i64 8, ptr %25) #10
  %111 = load i64, ptr %17, align 8, !tbaa !27
  store i64 %111, ptr %25, align 8, !tbaa !27
  %112 = load i64, ptr %21, align 8, !tbaa !27
  %113 = mul i64 %112, 2
  %114 = load i64, ptr %17, align 8, !tbaa !27
  %115 = sub i64 %114, %113
  store i64 %115, ptr %17, align 8, !tbaa !27
  %116 = load i64, ptr %17, align 8, !tbaa !27
  %117 = load i64, ptr %25, align 8, !tbaa !27
  %118 = icmp ugt i64 %116, %117
  %119 = zext i1 %118 to i32
  %120 = add i32 1, %119
  %121 = sext i32 %120 to i64
  %122 = load i64, ptr %18, align 8, !tbaa !27
  %123 = sub i64 %122, %121
  store i64 %123, ptr %18, align 8, !tbaa !27
  call void @llvm.lifetime.end.p0(i64 8, ptr %25) #10
  br label %124

124:                                              ; preds = %110
  br label %125

125:                                              ; preds = %124
  %126 = load i64, ptr %18, align 8, !tbaa !27
  %127 = ashr i64 %126, 1
  store i64 %127, ptr %19, align 8, !tbaa !27
  %128 = load i64, ptr %19, align 8, !tbaa !27
  %129 = add i64 2, %128
  %130 = load i64, ptr %10, align 8, !tbaa !27
  %131 = add i64 %130, %129
  store i64 %131, ptr %10, align 8, !tbaa !27
  br label %132

132:                                              ; preds = %125
  call void @llvm.lifetime.start.p0(i64 8, ptr %26) #10
  %133 = load i64, ptr %17, align 8, !tbaa !27
  store i64 %133, ptr %26, align 8, !tbaa !27
  %134 = load i64, ptr %21, align 8, !tbaa !27
  %135 = load i64, ptr %19, align 8, !tbaa !27
  %136 = and i64 %134, %135
  %137 = load i64, ptr %17, align 8, !tbaa !27
  %138 = add i64 %137, %136
  store i64 %138, ptr %17, align 8, !tbaa !27
  %139 = load i64, ptr %17, align 8, !tbaa !27
  %140 = load i64, ptr %26, align 8, !tbaa !27
  %141 = icmp ult i64 %139, %140
  %142 = zext i1 %141 to i32
  %143 = add i32 0, %142
  %144 = sext i32 %143 to i64
  %145 = load i64, ptr %18, align 8, !tbaa !27
  %146 = add i64 %145, %144
  store i64 %146, ptr %18, align 8, !tbaa !27
  call void @llvm.lifetime.end.p0(i64 8, ptr %26) #10
  br label %147

147:                                              ; preds = %132
  br label %148

148:                                              ; preds = %147
  %149 = load i64, ptr %18, align 8, !tbaa !27
  %150 = load i64, ptr %10, align 8, !tbaa !27
  %151 = add i64 %150, %149
  store i64 %151, ptr %10, align 8, !tbaa !27
  %152 = load i64, ptr %21, align 8, !tbaa !27
  %153 = load i64, ptr %18, align 8, !tbaa !27
  %154 = and i64 %152, %153
  %155 = load i64, ptr %17, align 8, !tbaa !27
  %156 = add i64 %155, %154
  store i64 %156, ptr %17, align 8, !tbaa !27
  %157 = load i64, ptr %17, align 8, !tbaa !27
  store i64 %157, ptr %14, align 8, !tbaa !27
  call void @llvm.lifetime.end.p0(i64 8, ptr %21) #10
  call void @llvm.lifetime.end.p0(i64 8, ptr %20) #10
  call void @llvm.lifetime.end.p0(i64 8, ptr %19) #10
  call void @llvm.lifetime.end.p0(i64 8, ptr %18) #10
  call void @llvm.lifetime.end.p0(i64 8, ptr %17) #10
  br label %158

158:                                              ; preds = %148
  br label %159

159:                                              ; preds = %158
  %160 = load i64, ptr %14, align 8, !tbaa !27
  %161 = load ptr, ptr %6, align 8, !tbaa !28
  %162 = load i64, ptr %11, align 8, !tbaa !27
  %163 = getelementptr inbounds i64, ptr %161, i64 %162
  store i64 %160, ptr %163, align 8, !tbaa !27
  br label %164

164:                                              ; preds = %159
  %165 = load i64, ptr %11, align 8, !tbaa !27
  %166 = add i64 %165, 1
  store i64 %166, ptr %11, align 8, !tbaa !27
  br label %27, !llvm.loop !111

167:                                              ; preds = %27
  %168 = load i64, ptr %10, align 8, !tbaa !27
  call void @llvm.lifetime.end.p0(i64 8, ptr %14) #10
  call void @llvm.lifetime.end.p0(i64 8, ptr %13) #10
  call void @llvm.lifetime.end.p0(i64 8, ptr %12) #10
  call void @llvm.lifetime.end.p0(i64 8, ptr %11) #10
  ret i64 %168
}