; Function Attrs: nofree norecurse nosync nounwind memory(argmem: readwrite) uwtable
define dso_local i64 @mp_mul1_dec(ptr noundef writeonly captures(none) %0, ptr noundef readonly captures(none) %1, i64 noundef %2, i64 noundef %3, i64 noundef %4) local_unnamed_addr #8 {
  %6 = icmp sgt i64 %2, 0
  br i1 %6, label %.lr.ph, label %._crit_edge

.lr.ph:                                           ; preds = %5
  %7 = zext i64 %3 to i128
  br label %8

8:                                                ; preds = %.lr.ph, %8
  %.063 = phi i64 [ %4, %.lr.ph ], [ %43, %8 ]
  %.05862 = phi i64 [ 0, %.lr.ph ], [ %47, %8 ]
  %9 = getelementptr inbounds nuw i64, ptr %1, i64 %.05862
  %10 = load i64, ptr %9, align 8, !tbaa !33
  %11 = zext i64 %10 to i128
  %12 = mul nuw i128 %11, %7
  %13 = trunc i128 %12 to i64
  %14 = lshr i128 %12, 64
  %15 = trunc nuw i128 %14 to i64
  %16 = add i64 %.063, %13
  %17 = icmp ult i64 %16, %13
  %18 = zext i1 %17 to i64
  %19 = add nuw i64 %18, %15
  %20 = tail call noundef i64 @llvm.fshl.i64(i64 %19, i64 %16, i64 1)
  %21 = zext i64 %20 to i128
  %22 = mul nuw i128 %21, 17014118346046923173
  %23 = lshr i128 %22, 64
  %24 = trunc nuw i128 %23 to i64
  %25 = mul nuw nsw i128 %23, 10000000000000000000
  %26 = trunc i128 %25 to i64
  %27 = lshr i128 %25, 64
  %28 = trunc nuw nsw i128 %27 to i64
  %29 = sub i64 %16, %26
  %30 = icmp ult i64 %16, %26
  %.neg64 = sext i1 %30 to i64
  %31 = add i64 %29, -1553255926290448384
  %32 = icmp ult i64 %29, 1553255926290448384
  %.neg = select i1 %32, i64 -2, i64 -1
  %.neg61 = sub i64 %19, %28
  %33 = add i64 %.neg61, %.neg64
  %34 = add i64 %33, %.neg
  %35 = ashr i64 %34, 1
  %36 = and i64 %35, -8446744073709551616
  %37 = add i64 %36, %31
  %38 = icmp ult i64 %37, %31
  %39 = zext i1 %38 to i64
  %40 = add i64 %34, %39
  %41 = add nuw i64 %24, 2
  %42 = add i64 %41, %35
  %43 = add i64 %42, %40
  %44 = and i64 %40, -8446744073709551616
  %45 = add i64 %44, %37
  %46 = getelementptr inbounds nuw i64, ptr %0, i64 %.05862
  store i64 %45, ptr %46, align 8, !tbaa !33
  %47 = add nuw nsw i64 %.05862, 1
  %exitcond.not = icmp eq i64 %47, %2
  br i1 %exitcond.not, label %._crit_edge, label %8, !llvm.loop !124

._crit_edge:                                      ; preds = %8, %5
  %.0.lcssa = phi i64 [ %4, %5 ], [ %43, %8 ]
  ret i64 %.0.lcssa
}